; ModuleID = '19/234.c'
source_filename = "19/234.c"
target datalayout = "e-m:e-p270:32:32-p271:32:32-p272:64:64-i64:64-f80:128-n8:16:32:64-S128"
target triple = "x86_64-pc-linux-gnu"

@.str = private unnamed_addr constant [6 x i8] c"%s %s\00", align 1
@.str.1 = private unnamed_addr constant [4 x i8] c"%s \00", align 1
@.str.2 = private unnamed_addr constant [3 x i8] c"%s\00", align 1

; Function Attrs: noinline nounwind uwtable
define dso_local void @main() #0 {
  %1 = alloca [100 x i8], align 16
  %2 = alloca i8*, align 8
  %3 = alloca [100 x i8], align 16
  %4 = alloca [100 x i8], align 16
  %5 = alloca [100 x [20 x i8]], align 16
  %6 = alloca i32, align 4
  %7 = alloca i32, align 4
  %8 = alloca i32, align 4
  %9 = alloca i32, align 4
  %10 = alloca i32, align 4
  store i32 1, i32* %9, align 4
  %11 = getelementptr inbounds [100 x i8], [100 x i8]* %1, i64 0, i64 0
  %12 = call i32 (i8*, ...) bitcast (i32 (...)* @gets to i32 (i8*, ...)*)(i8* %11)
  %13 = getelementptr inbounds [100 x i8], [100 x i8]* %3, i64 0, i64 0
  %14 = getelementptr inbounds [100 x i8], [100 x i8]* %4, i64 0, i64 0
  %15 = call i32 (i8*, ...) @__isoc99_scanf(i8* getelementptr inbounds ([6 x i8], [6 x i8]* @.str, i64 0, i64 0), i8* %13, i8* %14)
  %16 = getelementptr inbounds [100 x i8], [100 x i8]* %1, i64 0, i64 0
  %17 = call i64 @strlen(i8* %16) #4
  %18 = trunc i64 %17 to i32
  store i32 %18, i32* %6, align 4
  %19 = getelementptr inbounds [100 x i8], [100 x i8]* %1, i64 0, i64 0
  store i8* %19, i8** %2, align 8
  store i32 0, i32* %7, align 4
  store i32 0, i32* %8, align 4
  br label %20

20:                                               ; preds = %38, %0
  %21 = load i32, i32* %7, align 4
  %22 = sext i32 %21 to i64
  %23 = getelementptr inbounds [100 x i8], [100 x i8]* %1, i64 0, i64 %22
  %24 = load i8, i8* %23, align 1
  %25 = sext i8 %24 to i32
  %26 = icmp eq i32 %25, 32
  br i1 %26, label %27, label %28

27:                                               ; preds = %20
  br label %43

28:                                               ; preds = %20
  %29 = load i32, i32* %7, align 4
  %30 = sext i32 %29 to i64
  %31 = getelementptr inbounds [100 x i8], [100 x i8]* %1, i64 0, i64 %30
  %32 = load i8, i8* %31, align 1
  %33 = getelementptr inbounds [100 x [20 x i8]], [100 x [20 x i8]]* %5, i64 0, i64 0
  %34 = load i32, i32* %8, align 4
  %35 = sext i32 %34 to i64
  %36 = getelementptr inbounds [20 x i8], [20 x i8]* %33, i64 0, i64 %35
  store i8 %32, i8* %36, align 1
  br label %37

37:                                               ; preds = %28
  br label %38

38:                                               ; preds = %37
  %39 = load i32, i32* %7, align 4
  %40 = add nsw i32 %39, 1
  store i32 %40, i32* %7, align 4
  %41 = load i32, i32* %8, align 4
  %42 = add nsw i32 %41, 1
  store i32 %42, i32* %8, align 4
  br label %20

43:                                               ; preds = %27
  %44 = getelementptr inbounds [100 x [20 x i8]], [100 x [20 x i8]]* %5, i64 0, i64 0
  %45 = load i32, i32* %8, align 4
  %46 = sext i32 %45 to i64
  %47 = getelementptr inbounds [20 x i8], [20 x i8]* %44, i64 0, i64 %46
  store i8 0, i8* %47, align 1
  store i32 0, i32* %7, align 4
  br label %48

48:                                               ; preds = %107, %43
  %49 = load i32, i32* %7, align 4
  %50 = load i32, i32* %6, align 4
  %51 = icmp slt i32 %49, %50
  br i1 %51, label %52, label %110

52:                                               ; preds = %48
  %53 = load i8*, i8** %2, align 8
  %54 = load i32, i32* %7, align 4
  %55 = sext i32 %54 to i64
  %56 = getelementptr inbounds i8, i8* %53, i64 %55
  %57 = getelementptr inbounds i8, i8* %56, i64 -1
  %58 = load i8, i8* %57, align 1
  %59 = sext i8 %58 to i32
  %60 = icmp eq i32 %59, 32
  br i1 %60, label %61, label %106

61:                                               ; preds = %52
  %62 = load i8*, i8** %2, align 8
  %63 = load i32, i32* %7, align 4
  %64 = sext i32 %63 to i64
  %65 = getelementptr inbounds i8, i8* %62, i64 %64
  %66 = load i8, i8* %65, align 1
  %67 = sext i8 %66 to i32
  %68 = icmp ne i32 %67, 32
  br i1 %68, label %69, label %106

69:                                               ; preds = %61
  store i32 0, i32* %8, align 4
  %70 = load i32, i32* %7, align 4
  store i32 %70, i32* %10, align 4
  br label %71

71:                                               ; preds = %92, %69
  %72 = load i32, i32* %10, align 4
  %73 = sext i32 %72 to i64
  %74 = getelementptr inbounds [100 x i8], [100 x i8]* %1, i64 0, i64 %73
  %75 = load i8, i8* %74, align 1
  %76 = sext i8 %75 to i32
  %77 = icmp eq i32 %76, 32
  br i1 %77, label %78, label %79

78:                                               ; preds = %71
  br label %97

79:                                               ; preds = %71
  %80 = load i8*, i8** %2, align 8
  %81 = load i32, i32* %10, align 4
  %82 = sext i32 %81 to i64
  %83 = getelementptr inbounds i8, i8* %80, i64 %82
  %84 = load i8, i8* %83, align 1
  %85 = load i32, i32* %9, align 4
  %86 = sext i32 %85 to i64
  %87 = getelementptr inbounds [100 x [20 x i8]], [100 x [20 x i8]]* %5, i64 0, i64 %86
  %88 = load i32, i32* %8, align 4
  %89 = sext i32 %88 to i64
  %90 = getelementptr inbounds [20 x i8], [20 x i8]* %87, i64 0, i64 %89
  store i8 %84, i8* %90, align 1
  br label %91

91:                                               ; preds = %79
  br label %92

92:                                               ; preds = %91
  %93 = load i32, i32* %8, align 4
  %94 = add nsw i32 %93, 1
  store i32 %94, i32* %8, align 4
  %95 = load i32, i32* %10, align 4
  %96 = add nsw i32 %95, 1
  store i32 %96, i32* %10, align 4
  br label %71

97:                                               ; preds = %78
  %98 = load i32, i32* %9, align 4
  %99 = sext i32 %98 to i64
  %100 = getelementptr inbounds [100 x [20 x i8]], [100 x [20 x i8]]* %5, i64 0, i64 %99
  %101 = load i32, i32* %8, align 4
  %102 = sext i32 %101 to i64
  %103 = getelementptr inbounds [20 x i8], [20 x i8]* %100, i64 0, i64 %102
  store i8 0, i8* %103, align 1
  %104 = load i32, i32* %9, align 4
  %105 = add nsw i32 %104, 1
  store i32 %105, i32* %9, align 4
  br label %106

106:                                              ; preds = %97, %61, %52
  br label %107

107:                                              ; preds = %106
  %108 = load i32, i32* %7, align 4
  %109 = add nsw i32 %108, 1
  store i32 %109, i32* %7, align 4
  br label %48

110:                                              ; preds = %48
  store i32 0, i32* %7, align 4
  br label %111

111:                                              ; preds = %131, %110
  %112 = load i32, i32* %7, align 4
  %113 = load i32, i32* %9, align 4
  %114 = icmp slt i32 %112, %113
  br i1 %114, label %115, label %134

115:                                              ; preds = %111
  %116 = load i32, i32* %7, align 4
  %117 = sext i32 %116 to i64
  %118 = getelementptr inbounds [100 x [20 x i8]], [100 x [20 x i8]]* %5, i64 0, i64 %117
  %119 = getelementptr inbounds [20 x i8], [20 x i8]* %118, i64 0, i64 0
  %120 = getelementptr inbounds [100 x i8], [100 x i8]* %3, i64 0, i64 0
  %121 = call i32 @strcmp(i8* %119, i8* %120) #4
  %122 = icmp eq i32 %121, 0
  br i1 %122, label %123, label %130

123:                                              ; preds = %115
  %124 = load i32, i32* %7, align 4
  %125 = sext i32 %124 to i64
  %126 = getelementptr inbounds [100 x [20 x i8]], [100 x [20 x i8]]* %5, i64 0, i64 %125
  %127 = getelementptr inbounds [20 x i8], [20 x i8]* %126, i64 0, i64 0
  %128 = getelementptr inbounds [100 x i8], [100 x i8]* %4, i64 0, i64 0
  %129 = call i8* @strcpy(i8* %127, i8* %128) #5
  br label %130

130:                                              ; preds = %123, %115
  br label %131

131:                                              ; preds = %130
  %132 = load i32, i32* %7, align 4
  %133 = add nsw i32 %132, 1
  store i32 %133, i32* %7, align 4
  br label %111

134:                                              ; preds = %111
  store i32 0, i32* %7, align 4
  br label %135

135:                                              ; preds = %146, %134
  %136 = load i32, i32* %7, align 4
  %137 = load i32, i32* %9, align 4
  %138 = sub nsw i32 %137, 1
  %139 = icmp slt i32 %136, %138
  br i1 %139, label %140, label %149

140:                                              ; preds = %135
  %141 = load i32, i32* %7, align 4
  %142 = sext i32 %141 to i64
  %143 = getelementptr inbounds [100 x [20 x i8]], [100 x [20 x i8]]* %5, i64 0, i64 %142
  %144 = getelementptr inbounds [20 x i8], [20 x i8]* %143, i64 0, i64 0
  %145 = call i32 (i8*, ...) @printf(i8* getelementptr inbounds ([4 x i8], [4 x i8]* @.str.1, i64 0, i64 0), i8* %144)
  br label %146

146:                                              ; preds = %140
  %147 = load i32, i32* %7, align 4
  %148 = add nsw i32 %147, 1
  store i32 %148, i32* %7, align 4
  br label %135

149:                                              ; preds = %135
  %150 = load i32, i32* %9, align 4
  %151 = sub nsw i32 %150, 1
  %152 = sext i32 %151 to i64
  %153 = getelementptr inbounds [100 x [20 x i8]], [100 x [20 x i8]]* %5, i64 0, i64 %152
  %154 = getelementptr inbounds [20 x i8], [20 x i8]* %153, i64 0, i64 0
  %155 = call i32 (i8*, ...) @printf(i8* getelementptr inbounds ([3 x i8], [3 x i8]* @.str.2, i64 0, i64 0), i8* %154)
  ret void
}

declare dso_local i32 @gets(...) #1

declare dso_local i32 @__isoc99_scanf(i8*, ...) #1

; Function Attrs: nounwind readonly
declare dso_local i64 @strlen(i8*) #2

; Function Attrs: nounwind readonly
declare dso_local i32 @strcmp(i8*, i8*) #2

; Function Attrs: nounwind
declare dso_local i8* @strcpy(i8*, i8*) #3

declare dso_local i32 @printf(i8*, ...) #1


!llvm.module.flags = !{!0}
!llvm.ident = !{!1}

!0 = !{i32 1, !"wchar_size", i32 4}
!1 = !{!"clang version 10.0.0-4ubuntu1 "}
